target datalayout = "e-m:e-p270:32:32-p271:32:32-p272:64:64-i64:64-i128:128-f80:128-n8:16:32:64-S128"
target triple = "x86_64-pc-linux-gnu"

%struct.exr_attribute_list = type { i32, i32, ptr, ptr }
%struct._priv_exr_context_t = type { i8, i8, i8, i8, i8, i8, i8, i8, %struct.exr_attr_string_t, %struct.exr_attr_string_t, ptr, ptr, ptr, ptr, ptr, ptr, ptr, ptr, i32, i32, i32, i32, i32, float, ptr, ptr, ptr, i64, ptr, ptr, i64, i32, i32, i32, i32, %struct._priv_exr_part_t, ptr, ptr, %struct.exr_attribute_list, %union.pthread_mutex_t, i8, i8, [2 x i8], i32 }
%struct.exr_attr_string_t = type { i32, i32, ptr }
%struct._priv_exr_part_t = type { i32, i32, %struct.exr_attribute_list, ptr, ptr, ptr, ptr, ptr, ptr, ptr, ptr, ptr, ptr, ptr, ptr, ptr, ptr, %struct.exr_attr_box2i_t, %struct.exr_attr_box2i_t, i32, i32, i32, float, i32, i32, ptr, ptr, ptr, ptr, i64, i16, i16, i32, i64, i64 }
%struct.exr_attr_box2i_t = type { %struct.exr_attr_v2i_t, %struct.exr_attr_v2i_t }
%struct.exr_attr_v2i_t = type { i32, i32 }
%union.pthread_mutex_t = type { %struct.__pthread_mutex_s }
%struct.__pthread_mutex_s = type { i32, i32, i32, i32, i32, i16, i16, %struct.__pthread_internal_list }
%struct.__pthread_internal_list = type { ptr, ptr }

@.str.13 = private unnamed_addr constant [32 x i8] c"NULL attribute passed to remove\00", align 1
@.str.14 = private unnamed_addr constant [41 x i8] c"Invalid list pointer to remove attribute\00", align 1
@.str.15 = private unnamed_addr constant [22 x i8] c"Attribute not in list\00", align 1

; Function Attrs: nounwind uwtable
define hidden i32 @exr_attr_list_remove(ptr noundef %0, ptr noundef %1, ptr noundef %2) #0 {
  %4 = alloca i32, align 4
  %5 = alloca ptr, align 8
  %6 = alloca ptr, align 8
  %7 = alloca ptr, align 8
  %8 = alloca i32, align 4
  %9 = alloca i32, align 4
  %10 = alloca ptr, align 8
  %11 = alloca i32, align 4
  %12 = alloca i32, align 4
  %13 = alloca i32, align 4
  %14 = alloca i32, align 4
  store ptr %0, ptr %5, align 8, !tbaa !15
  store ptr %1, ptr %6, align 8, !tbaa !17
  store ptr %2, ptr %7, align 8, !tbaa !23
  call void @llvm.lifetime.start.p0(i64 4, ptr %8) #6
  call void @llvm.lifetime.start.p0(i64 4, ptr %9) #6
  store i32 -1, ptr %9, align 4, !tbaa !8
  call void @llvm.lifetime.start.p0(i64 8, ptr %10) #6
  %15 = load ptr, ptr %5, align 8, !tbaa !15
  %16 = icmp ne ptr %15, null
  br i1 %16, label %18, label %17

17:                                               ; preds = %3
  store i32 2, ptr %4, align 4
  store i32 1, ptr %11, align 4
  br label %140

18:                                               ; preds = %3
  %19 = load ptr, ptr %7, align 8, !tbaa !23
  %20 = icmp ne ptr %19, null
  br i1 %20, label %27, label %21

21:                                               ; preds = %18
  %22 = load ptr, ptr %5, align 8, !tbaa !15
  %23 = getelementptr inbounds nuw %struct._priv_exr_context_t, ptr %22, i32 0, i32 13
  %24 = load ptr, ptr %23, align 8, !tbaa !44
  %25 = load ptr, ptr %5, align 8, !tbaa !15
  %26 = call i32 %24(ptr noundef %25, i32 noundef 3, ptr noundef @.str.13)
  store i32 %26, ptr %4, align 4
  store i32 1, ptr %11, align 4
  br label %140

27:                                               ; preds = %18
  %28 = load ptr, ptr %6, align 8, !tbaa !17
  %29 = icmp ne ptr %28, null
  br i1 %29, label %36, label %30

30:                                               ; preds = %27
  %31 = load ptr, ptr %5, align 8, !tbaa !15
  %32 = getelementptr inbounds nuw %struct._priv_exr_context_t, ptr %31, i32 0, i32 13
  %33 = load ptr, ptr %32, align 8, !tbaa !44
  %34 = load ptr, ptr %5, align 8, !tbaa !15
  %35 = call i32 %33(ptr noundef %34, i32 noundef 3, ptr noundef @.str.14)
  store i32 %35, ptr %4, align 4
  store i32 1, ptr %11, align 4
  br label %140

36:                                               ; preds = %27
  %37 = load ptr, ptr %6, align 8, !tbaa !17
  %38 = getelementptr inbounds nuw %struct.exr_attribute_list, ptr %37, i32 0, i32 0
  %39 = load i32, ptr %38, align 8, !tbaa !22
  store i32 %39, ptr %8, align 4, !tbaa !8
  %40 = load ptr, ptr %6, align 8, !tbaa !17
  %41 = getelementptr inbounds nuw %struct.exr_attribute_list, ptr %40, i32 0, i32 2
  %42 = load ptr, ptr %41, align 8, !tbaa !19
  store ptr %42, ptr %10, align 8, !tbaa !37
  call void @llvm.lifetime.start.p0(i64 4, ptr %12) #6
  store i32 0, ptr %12, align 4, !tbaa !8
  br label %43

43:                                               ; preds = %59, %36
  %44 = load i32, ptr %12, align 4, !tbaa !8
  %45 = load i32, ptr %8, align 4, !tbaa !8
  %46 = icmp slt i32 %44, %45
  br i1 %46, label %48, label %47

47:                                               ; preds = %43
  store i32 2, ptr %11, align 4
  br label %62

48:                                               ; preds = %43
  %49 = load ptr, ptr %10, align 8, !tbaa !37
  %50 = load i32, ptr %12, align 4, !tbaa !8
  %51 = sext i32 %50 to i64
  %52 = getelementptr inbounds ptr, ptr %49, i64 %51
  %53 = load ptr, ptr %52, align 8, !tbaa !23
  %54 = load ptr, ptr %7, align 8, !tbaa !23
  %55 = icmp eq ptr %53, %54
  br i1 %55, label %56, label %58

56:                                               ; preds = %48
  %57 = load i32, ptr %12, align 4, !tbaa !8
  store i32 %57, ptr %9, align 4, !tbaa !8
  store i32 2, ptr %11, align 4
  br label %62

58:                                               ; preds = %48
  br label %59

59:                                               ; preds = %58
  %60 = load i32, ptr %12, align 4, !tbaa !8
  %61 = add nsw i32 %60, 1
  store i32 %61, ptr %12, align 4, !tbaa !8
  br label %43, !llvm.loop !89

62:                                               ; preds = %56, %47
  call void @llvm.lifetime.end.p0(i64 4, ptr %12) #6
  br label %63

63:                                               ; preds = %62
  %64 = load i32, ptr %9, align 4, !tbaa !8
  %65 = icmp eq i32 %64, -1
  br i1 %65, label %66, label %72

66:                                               ; preds = %63
  %67 = load ptr, ptr %5, align 8, !tbaa !15
  %68 = getelementptr inbounds nuw %struct._priv_exr_context_t, ptr %67, i32 0, i32 13
  %69 = load ptr, ptr %68, align 8, !tbaa !44
  %70 = load ptr, ptr %5, align 8, !tbaa !15
  %71 = call i32 %69(ptr noundef %70, i32 noundef 3, ptr noundef @.str.15)
  store i32 %71, ptr %4, align 4
  store i32 1, ptr %11, align 4
  br label %140

72:                                               ; preds = %63
  %73 = load ptr, ptr %6, align 8, !tbaa !17
  %74 = getelementptr inbounds nuw %struct.exr_attribute_list, ptr %73, i32 0, i32 2
  %75 = load ptr, ptr %74, align 8, !tbaa !19
  %76 = load i32, ptr %9, align 4, !tbaa !8
  %77 = sext i32 %76 to i64
  %78 = getelementptr inbounds ptr, ptr %75, i64 %77
  store ptr null, ptr %78, align 8, !tbaa !23
  call void @llvm.lifetime.start.p0(i64 4, ptr %13) #6
  %79 = load i32, ptr %9, align 4, !tbaa !8
  store i32 %79, ptr %13, align 4, !tbaa !8
  br label %80

80:                                               ; preds = %97, %72
  %81 = load i32, ptr %13, align 4, !tbaa !8
  %82 = load i32, ptr %8, align 4, !tbaa !8
  %83 = sub nsw i32 %82, 1
  %84 = icmp slt i32 %81, %83
  br i1 %84, label %86, label %85

85:                                               ; preds = %80
  store i32 5, ptr %11, align 4
  call void @llvm.lifetime.end.p0(i64 4, ptr %13) #6
  br label %100

86:                                               ; preds = %80
  %87 = load ptr, ptr %10, align 8, !tbaa !37
  %88 = load i32, ptr %13, align 4, !tbaa !8
  %89 = add nsw i32 %88, 1
  %90 = sext i32 %89 to i64
  %91 = getelementptr inbounds ptr, ptr %87, i64 %90
  %92 = load ptr, ptr %91, align 8, !tbaa !23
  %93 = load ptr, ptr %10, align 8, !tbaa !37
  %94 = load i32, ptr %13, align 4, !tbaa !8
  %95 = sext i32 %94 to i64
  %96 = getelementptr inbounds ptr, ptr %93, i64 %95
  store ptr %92, ptr %96, align 8, !tbaa !23
  br label %97

97:                                               ; preds = %86
  %98 = load i32, ptr %13, align 4, !tbaa !8
  %99 = add nsw i32 %98, 1
  store i32 %99, ptr %13, align 4, !tbaa !8
  br label %80, !llvm.loop !90

100:                                              ; preds = %85
  %101 = load i32, ptr %8, align 4, !tbaa !8
  %102 = sub nsw i32 %101, 1
  %103 = load ptr, ptr %6, align 8, !tbaa !17
  %104 = getelementptr inbounds nuw %struct.exr_attribute_list, ptr %103, i32 0, i32 0
  store i32 %102, ptr %104, align 8, !tbaa !22
  %105 = load ptr, ptr %6, align 8, !tbaa !17
  %106 = getelementptr inbounds nuw %struct.exr_attribute_list, ptr %105, i32 0, i32 3
  %107 = load ptr, ptr %106, align 8, !tbaa !69
  store ptr %107, ptr %10, align 8, !tbaa !37
  store i32 0, ptr %9, align 4, !tbaa !8
  call void @llvm.lifetime.start.p0(i64 4, ptr %14) #6
  store i32 0, ptr %14, align 4, !tbaa !8
  br label %108

108:                                              ; preds = %133, %100
  %109 = load i32, ptr %14, align 4, !tbaa !8
  %110 = load i32, ptr %8, align 4, !tbaa !8
  %111 = icmp slt i32 %109, %110
  br i1 %111, label %113, label %112

112:                                              ; preds = %108
  store i32 8, ptr %11, align 4
  call void @llvm.lifetime.end.p0(i64 4, ptr %14) #6
  br label %136

113:                                              ; preds = %108
  %114 = load ptr, ptr %10, align 8, !tbaa !37
  %115 = load i32, ptr %14, align 4, !tbaa !8
  %116 = sext i32 %115 to i64
  %117 = getelementptr inbounds ptr, ptr %114, i64 %116
  %118 = load ptr, ptr %117, align 8, !tbaa !23
  %119 = load ptr, ptr %7, align 8, !tbaa !23
  %120 = icmp eq ptr %118, %119
  br i1 %120, label %121, label %122

121:                                              ; preds = %113
  br label %133

122:                                              ; preds = %113
  %123 = load ptr, ptr %10, align 8, !tbaa !37
  %124 = load i32, ptr %14, align 4, !tbaa !8
  %125 = sext i32 %124 to i64
  %126 = getelementptr inbounds ptr, ptr %123, i64 %125
  %127 = load ptr, ptr %126, align 8, !tbaa !23
  %128 = load ptr, ptr %10, align 8, !tbaa !37
  %129 = load i32, ptr %9, align 4, !tbaa !8
  %130 = add nsw i32 %129, 1
  store i32 %130, ptr %9, align 4, !tbaa !8
  %131 = sext i32 %129 to i64
  %132 = getelementptr inbounds ptr, ptr %128, i64 %131
  store ptr %127, ptr %132, align 8, !tbaa !23
  br label %133

133:                                              ; preds = %122, %121
  %134 = load i32, ptr %14, align 4, !tbaa !8
  %135 = add nsw i32 %134, 1
  store i32 %135, ptr %14, align 4, !tbaa !8
  br label %108, !llvm.loop !91

136:                                              ; preds = %112
  %137 = load ptr, ptr %5, align 8, !tbaa !15
  %138 = load ptr, ptr %7, align 8, !tbaa !23
  %139 = call i32 @attr_destroy(ptr noundef %137, ptr noundef %138)
  store i32 %139, ptr %4, align 4
  store i32 1, ptr %11, align 4
  br label %140

140:                                              ; preds = %136, %66, %30, %21, %17
  call void @llvm.lifetime.end.p0(i64 8, ptr %10) #6
  call void @llvm.lifetime.end.p0(i64 4, ptr %9) #6
  call void @llvm.lifetime.end.p0(i64 4, ptr %8) #6
  %141 = load i32, ptr %4, align 4
  ret i32 %141
}