; Function Attrs: nounwind uwtable
define hidden i32 @exr_attr_list_remove(ptr noundef %0, ptr noundef %1, ptr noundef %2) local_unnamed_addr #3 {
  %.not = icmp eq ptr %0, null
  br i1 %.not, label %46, label %4

4:                                                ; preds = %3
  %.not53 = icmp eq ptr %2, null
  br i1 %.not53, label %5, label %9

5:                                                ; preds = %4
  %6 = getelementptr inbounds nuw i8, ptr %0, i64 64
  %7 = load ptr, ptr %6, align 8, !tbaa !33
  %8 = tail call i32 %7(ptr noundef nonnull %0, i32 noundef 3, ptr noundef nonnull @.str.13) #9
  br label %46

9:                                                ; preds = %4
  %.not54 = icmp eq ptr %1, null
  br i1 %.not54, label %10, label %14

10:                                               ; preds = %9
  %11 = getelementptr inbounds nuw i8, ptr %0, i64 64
  %12 = load ptr, ptr %11, align 8, !tbaa !33
  %13 = tail call i32 %12(ptr noundef nonnull %0, i32 noundef 3, ptr noundef nonnull @.str.14) #9
  br label %46

14:                                               ; preds = %9
  %15 = load i32, ptr %1, align 8, !tbaa !16
  %16 = getelementptr inbounds nuw i8, ptr %1, i64 8
  %17 = load ptr, ptr %16, align 8, !tbaa !13
  %18 = icmp sgt i32 %15, 0
  br i1 %18, label %.lr.ph.preheader, label %._crit_edge

.lr.ph.preheader:                                 ; preds = %14
  %wide.trip.count = zext nneg i32 %15 to i64
  br label %.lr.ph

.lr.ph:                                           ; preds = %.lr.ph.preheader, %22
  %indvars.iv = phi i64 [ 0, %.lr.ph.preheader ], [ %indvars.iv.next, %22 ]
  %19 = getelementptr inbounds nuw ptr, ptr %17, i64 %indvars.iv
  %20 = load ptr, ptr %19, align 8, !tbaa !28
  %21 = icmp eq ptr %20, %2
  br i1 %21, label %26, label %22

22:                                               ; preds = %.lr.ph
  %indvars.iv.next = add nuw nsw i64 %indvars.iv, 1
  %exitcond.not = icmp eq i64 %indvars.iv.next, %wide.trip.count
  br i1 %exitcond.not, label %._crit_edge, label %.lr.ph, !llvm.loop !72

._crit_edge:                                      ; preds = %22, %14
  %23 = getelementptr inbounds nuw i8, ptr %0, i64 64
  %24 = load ptr, ptr %23, align 8, !tbaa !33
  %25 = tail call i32 %24(ptr noundef nonnull %0, i32 noundef 3, ptr noundef nonnull @.str.15) #9
  br label %46

26:                                               ; preds = %.lr.ph
  %27 = trunc nuw nsw i64 %indvars.iv to i32
  %28 = and i64 %indvars.iv, 4294967295
  %29 = getelementptr inbounds nuw ptr, ptr %17, i64 %28
  store ptr null, ptr %29, align 8, !tbaa !28
  %30 = add nsw i32 %15, -1
  %31 = icmp sgt i32 %30, %27
  br i1 %31, label %.lr.ph60.preheader, label %.lr.ph65.preheader

.lr.ph60.preheader:                               ; preds = %26
  %wide.trip.count75 = zext i32 %30 to i64
  br label %.lr.ph60

.lr.ph65.preheader:                               ; preds = %.lr.ph60, %26
  store i32 %30, ptr %1, align 8, !tbaa !16
  %32 = getelementptr inbounds nuw i8, ptr %1, i64 16
  %33 = load ptr, ptr %32, align 8, !tbaa !60
  %smax = tail call i32 @llvm.smax.i32(i32 %15, i32 1)
  %wide.trip.count80 = zext nneg i32 %smax to i64
  br label %.lr.ph65

.lr.ph60:                                         ; preds = %.lr.ph60.preheader, %.lr.ph60
  %indvars.iv72 = phi i64 [ %indvars.iv, %.lr.ph60.preheader ], [ %indvars.iv.next73, %.lr.ph60 ]
  %indvars.iv.next73 = add nuw nsw i64 %indvars.iv72, 1
  %34 = getelementptr inbounds nuw ptr, ptr %17, i64 %indvars.iv.next73
  %35 = load ptr, ptr %34, align 8, !tbaa !28
  %36 = getelementptr inbounds nuw ptr, ptr %17, i64 %indvars.iv72
  store ptr %35, ptr %36, align 8, !tbaa !28
  %exitcond76.not = icmp eq i64 %indvars.iv.next73, %wide.trip.count75
  br i1 %exitcond76.not, label %.lr.ph65.preheader, label %.lr.ph60, !llvm.loop !73

._crit_edge66:                                    ; preds = %45
  %37 = tail call fastcc i32 @attr_destroy(ptr noundef %0, ptr noundef nonnull %2)
  br label %46

.lr.ph65:                                         ; preds = %.lr.ph65.preheader, %45
  %indvars.iv77 = phi i64 [ 0, %.lr.ph65.preheader ], [ %indvars.iv.next78, %45 ]
  %.162 = phi i32 [ 0, %.lr.ph65.preheader ], [ %.2, %45 ]
  %38 = getelementptr inbounds nuw ptr, ptr %33, i64 %indvars.iv77
  %39 = load ptr, ptr %38, align 8, !tbaa !28
  %40 = icmp eq ptr %39, %2
  br i1 %40, label %45, label %41

41:                                               ; preds = %.lr.ph65
  %42 = add nsw i32 %.162, 1
  %43 = sext i32 %.162 to i64
  %44 = getelementptr inbounds ptr, ptr %33, i64 %43
  store ptr %39, ptr %44, align 8, !tbaa !28
  br label %45

45:                                               ; preds = %.lr.ph65, %41
  %.2 = phi i32 [ %.162, %.lr.ph65 ], [ %42, %41 ]
  %indvars.iv.next78 = add nuw nsw i64 %indvars.iv77, 1
  %exitcond81.not = icmp eq i64 %indvars.iv.next78, %wide.trip.count80
  br i1 %exitcond81.not, label %._crit_edge66, label %.lr.ph65, !llvm.loop !74

46:                                               ; preds = %3, %._crit_edge66, %._crit_edge, %10, %5
  %.047 = phi i32 [ %25, %._crit_edge ], [ %37, %._crit_edge66 ], [ %13, %10 ], [ %8, %5 ], [ 2, %3 ]
  ret i32 %.047
}